Certificate:
    Data:
        Version: 3 (0x2)
        Serial Number: 4096 (0x1000)
        Signature Algorithm: sha256WithRSAEncryption
        Issuer: C=EU, ST=EU, L=EU, O=Orbit OS, OU=Local gRPC mTLS CA, CN=Orbit OS Local gRPC mTLS CA
        Validity
            Not Before: Jan  1 00:00:00 2020 GMT
            Not After : Dec 31 23:59:59 2049 GMT
        Subject: C=EU, ST=EU, L=EU, O=Orbit OS, OU=Local gRPC mTLS CA, CN=Orbit OS Local gRPC mTLS CA
        Subject Public Key Info:
            Public Key Algorithm: rsaEncryption
                RSA Public-Key: (4096 bit)
                Modulus:
                    00:c0:13:af:f6:77:cd:4e:74:4f:cd:6a:bf:0d:90:
                    99:94:80:00:e9:e4:92:e7:75:8a:1e:43:0b:5e:3b:
                    15:1c:0f:12:b9:3e:32:bf:6f:32:67:bf:d4:42:30:
                    b2:4c:24:42:24:9d:3a:38:99:b6:5a:03:0f:fe:ca:
                    66:51:d7:83:15:a4:c0:f1:98:9d:92:e7:da:fb:cf:
                    b6:bf:82:03:de:df:d9:92:da:6b:5c:09:47:37:95:
                    c2:51:5b:6d:9f:d0:6e:56:34:38:81:65:1b:9f:f6:
                    3d:7a:8d:f3:fa:8b:d3:8d:95:05:59:5a:4d:00:8a:
                    b7:3b:e4:bf:73:cf:cd:48:24:4e:d8:09:40:d2:b5:
                    8b:51:ee:23:ad:05:53:23:21:0c:ec:b4:6d:82:65:
                    27:7e:c3:7e:41:df:b4:42:95:08:20:6f:1f:93:9b:
                    5f:19:82:7f:69:0b:6a:00:4e:1f:c8:d3:93:e9:bc:
                    fc:48:68:94:05:1c:63:09:cd:6f:c8:fe:8b:a3:73:
                    af:e0:98:7f:8c:65:10:94:45:d4:09:97:a6:28:67:
                    a9:78:1d:c4:9b:6b:05:14:be:e3:9e:a7:a7:0a:85:
                    b1:e2:e3:c0:a0:9a:a0:0b:3c:e8:06:c3:23:56:e0:
                    c2:35:be:d0:3a:a7:31:86:fe:b1:64:88:a1:d0:c0:
                    a5:7f:1e:81:9e:07:89:80:7c:3a:c8:9c:aa:1c:4b:
                    ca:04:b5:0e:0d:5f:a8:59:ac:39:05:37:68:64:f7:
                    b9:94:b4:8f:2b:0d:39:a8:26:9a:70:dd:01:67:4f:
                    7d:ba:98:dc:e4:c2:30:db:2c:de:3f:79:50:ce:f3:
                    fe:6a:82:ab:ca:0c:8f:01:61:77:75:08:ce:11:db:
                    0a:0a:74:c6:14:90:18:f4:7e:0e:85:da:e8:92:3a:
                    a1:16:98:bd:b0:ea:45:ff:47:5f:f8:95:5b:47:7f:
                    c6:32:f0:fb:d4:5e:a5:63:21:66:10:23:a9:21:de:
                    e6:3a:b2:ed:8b:a9:3f:23:a0:fc:bb:d5:06:81:99:
                    a6:89:e1:32:95:e8:9a:50:7e:2a:22:b8:73:75:ac:
                    67:01:ce:9f:1d:17:91:d0:9c:c6:3e:cc:f4:89:eb:
                    ab:74:8e:a1:b7:48:94:71:81:a9:b4:83:9f:b2:93:
                    b4:58:d4:c6:59:dd:69:18:f1:21:6c:16:7d:c4:2a:
                    e4:22:3c:a6:ea:f2:77:78:c7:c6:45:22:8e:2a:e1:
                    d7:38:01:c1:24:34:08:e7:76:14:7b:8c:3e:51:db:
                    77:b9:fd:3a:7c:c8:d4:b8:31:29:c9:aa:fc:1a:bf:
                    b0:b6:33:d5:92:bb:b9:fc:b9:01:4f:48:69:66:67:
                    1d:6f:b5
                Exponent: 65537 (0x10001)
        X509v3 extensions:
            X509v3 Basic Constraints: critical
                CA:TRUE
            X509v3 Key Usage: critical
                Certificate Sign, CRL Sign
            X509v3 Subject Key Identifier: 
                42:86:4E:F6:30:C6:AA:08:36:CA:63:6E:6C:63:0B:68:83:F5:17:44
    Signature Algorithm: sha256WithRSAEncryption
         71:ac:74:a7:d3:81:9d:9f:f3:11:24:7a:35:b5:6f:bd:7b:14:
         f2:69:7f:5f:ac:87:00:a1:16:2f:24:46:7d:42:1b:09:fb:32:
         f3:6d:be:ee:6c:d0:88:16:0d:55:df:38:ab:87:5f:c9:16:e9:
         9a:fd:7f:c0:fd:a0:5b:c2:da:3f:8b:8c:e6:05:44:ac:37:6a:
         7f:e3:51:48:4a:b6:ce:35:5c:ff:20:76:ea:cf:2c:ca:e4:32:
         44:8d:8b:d9:ca:30:3c:9e:57:8c:66:1a:93:38:d0:92:50:7d:
         32:9b:9f:65:7e:92:4b:7a:36:c4:18:99:9f:e1:64:00:f5:e4:
         5d:a5:29:92:c4:cd:98:3c:ef:fa:c6:1d:e8:71:01:04:36:5c:
         54:23:54:bb:87:32:69:4b:8d:d6:e5:65:76:60:f5:07:b5:7a:
         f4:b6:48:af:d5:2b:94:04:d0:57:87:8b:a5:df:70:d1:06:a4:
         6d:b5:ee:0e:99:b8:63:49:2a:f5:d5:b3:0a:0f:6c:0b:f8:a3:
         dc:ef:6e:10:db:bb:fd:2c:15:3a:28:e8:cc:11:b2:c8:74:8d:
         8e:08:f4:d9:1e:5b:2b:d1:b4:ff:6c:05:87:03:8b:3d:da:20:
         f6:59:6d:72:7d:46:68:14:37:d7:e1:87:78:71:26:b1:19:f6:
         49:9c:f4:92:bb:d7:13:d9:6d:79:c7:40:7c:4c:fe:07:dc:27:
         d8:d4:9d:c6:11:09:4f:69:63:d1:4b:d5:96:8a:73:07:83:6b:
         8e:f5:de:dd:3d:d9:84:70:25:cf:69:82:93:23:e2:db:c5:de:
         ca:85:6f:71:eb:bd:64:c9:2b:35:83:2e:74:a2:d9:42:f3:00:
         17:55:53:87:b1:f9:f8:e5:38:52:f1:9c:27:2e:23:c8:4f:45:
         3e:88:d2:27:3d:63:32:12:9d:f9:f3:95:f9:df:16:d7:2c:98:
         22:5c:9a:ca:aa:52:82:36:d7:6a:3b:73:e6:c1:32:40:27:2d:
         3b:57:e5:e8:56:05:cb:b8:0c:cd:db:fb:ab:fa:1c:d3:54:df:
         4b:81:37:49:6c:7b:0c:e7:ba:46:0f:66:1a:74:09:26:1f:34:
         64:4a:2b:d5:9c:ec:9f:dc:db:a5:9f:05:52:6c:0d:0a:4f:d8:
         c0:f9:86:67:e9:8e:0c:a4:1c:1b:02:eb:03:39:28:68:42:6f:
         8f:f1:66:ea:99:cd:6b:cd:6f:fa:7f:e3:ae:fd:4d:72:e9:38:
         95:3f:49:eb:21:57:d2:32:48:c4:21:cf:eb:e0:ba:28:f1:cf:
         15:9d:e6:8e:79:55:7d:ee:77:bc:39:89:1d:6f:39:69:56:53:
         07:15:95:2f:bd:1c:67:9c
-----BEGIN CERTIFICATE-----
MIIFuDCCA6CgAwIBAgICEAAwDQYJKoZIhvcNAQELBQAwfTELMAkGA1UEBhMCRVUx
CzAJBgNVBAgMAkVVMQswCQYDVQQHDAJFVTERMA8GA1UECgwIT3JiaXQgT1MxGzAZ
BgNVBAsMEkxvY2FsIGdSUEMgbVRMUyBDQTEkMCIGA1UEAwwbT3JiaXQgT1MgTG9j
YWwgZ1JQQyBtVExTIENBMB4XDTIwMDEwMTAwMDAwMFoXDTQ5MTIzMTIzNTk1OVow
fTELMAkGA1UEBhMCRVUxCzAJBgNVBAgMAkVVMQswCQYDVQQHDAJFVTERMA8GA1UE
CgwIT3JiaXQgT1MxGzAZBgNVBAsMEkxvY2FsIGdSUEMgbVRMUyBDQTEkMCIGA1UE
AwwbT3JiaXQgT1MgTG9jYWwgZ1JQQyBtVExTIENBMIICIjANBgkqhkiG9w0BAQEF
AAOCAg8AMIICCgKCAgEAwBOv9nfNTnRPzWq/DZCZlIAA6eSS53WKHkMLXjsVHA8S
uT4yv28yZ7/UQjCyTCRCJJ06OJm2WgMP/spmUdeDFaTA8Zidkufa+8+2v4ID3t/Z
ktprXAlHN5XCUVttn9BuVjQ4gWUbn/Y9eo3z+ovTjZUFWVpNAIq3O+S/c8/NSCRO
2AlA0rWLUe4jrQVTIyEM7LRtgmUnfsN+Qd+0QpUIIG8fk5tfGYJ/aQtqAE4fyNOT
6bz8SGiUBRxjCc1vyP6Lo3Ov4Jh/jGUQlEXUCZemKGepeB3Em2sFFL7jnqenCoWx
4uPAoJqgCzzoBsMjVuDCNb7QOqcxhv6xZIih0MClfx6BngeJgHw6yJyqHEvKBLUO
DV+oWaw5BTdoZPe5lLSPKw05qCaacN0BZ099upjc5MIw2yzeP3lQzvP+aoKrygyP
AWF3dQjOEdsKCnTGFJAY9H4OhdrokjqhFpi9sOpF/0df+JVbR3/GMvD71F6lYyFm
ECOpId7mOrLti6k/I6D8u9UGgZmmieEyleiaUH4qIrhzdaxnAc6fHReR0JzGPsz0
ieurdI6ht0iUcYGptIOfspO0WNTGWd1pGPEhbBZ9xCrkIjym6vJ3eMfGRSKOKuHX
OAHBJDQI53YUe4w+Udt3uf06fMjUuDEpyar8Gr+wtjPVkru5/LkBT0hpZmcdb7UC
AwEAAaNCMEAwDwYDVR0TAQH/BAUwAwEB/zAOBgNVHQ8BAf8EBAMCAQYwHQYDVR0O
BBYEFEKGTvYwxqoINspjbmxjC2iD9RdEMA0GCSqGSIb3DQEBCwUAA4ICAQBxrHSn
04Gdn/MRJHo1tW+9exTyaX9frIcAoRYvJEZ9QhsJ+zLzbb7ubNCIFg1V3zirh1/J
Fuma/X/A/aBbwto/i4zmBUSsN2p/41FISrbONVz/IHbqzyzK5DJEjYvZyjA8nleM
ZhqTONCSUH0ym59lfpJLejbEGJmf4WQA9eRdpSmSxM2YPO/6xh3ocQEENlxUI1S7
hzJpS43W5WV2YPUHtXr0tkiv1SuUBNBXh4ul33DRBqRtte4OmbhjSSr11bMKD2wL
+KPc724Q27v9LBU6KOjMEbLIdI2OCPTZHlsr0bT/bAWHA4s92iD2WW1yfUZoFDfX
4Yd4cSaxGfZJnPSSu9cT2W15x0B8TP4H3CfY1J3GEQlPaWPRS9WWinMHg2uO9d7d
PdmEcCXPaYKTI+Lbxd7KhW9x671kySs1gy50otlC8wAXVVOHsfn45ThS8ZwnLiPI
T0U+iNInPWMyEp3585X53xbXLJgiXJrKqlKCNtdqO3PmwTJAJy07V+XoVgXLuAzN
2/ur+hzTVN9LgTdJbHsM57pGD2YadAkmHzRkSivVnOyf3NulnwVSbA0KT9jA+YZn
6Y4MpBwbAusDOShoQm+P8Wbqmc1rzW/6f+Ou/U1y6TiVP0nrIVfSMkjEIc/r4Loo
8c8VneaOeVV97ne8OYkdbzlpVlMHFZUvvRxnnA==
-----END CERTIFICATE-----
