Certificate:
    Data:
        Version: 3 (0x2)
        Serial Number: 4098 (0x1002)
        Signature Algorithm: sha256WithRSAEncryption
        Issuer: C=EU, ST=EU, L=EU, O=Orbit OS, OU=Local gRPC mTLS CA, CN=Orbit OS Local gRPC mTLS CA
        Validity
            Not Before: Jan  1 00:00:00 2020 GMT
            Not After : Dec 31 23:59:59 2049 GMT
        Subject: C=EU, ST=EU, L=EU, O=Orbit OS, OU=SDK Development Unit, CN=Orbit OS SDK Development Unit
        Subject Public Key Info:
            Public Key Algorithm: rsaEncryption
                RSA Public-Key: (2048 bit)
                Modulus:
                    00:cb:85:85:0e:6b:34:32:d2:fe:b8:4d:6f:0e:5a:
                    a8:5d:82:cf:48:31:03:a2:c3:5e:c4:5c:6e:8e:94:
                    e2:46:29:24:41:b6:13:81:21:0d:40:71:58:ca:94:
                    b0:91:6d:16:9d:5d:59:da:32:4e:05:85:4b:78:d3:
                    d4:be:0e:37:8f:cc:e4:63:a5:d0:a7:e1:49:f2:9f:
                    66:80:cc:c5:d8:f8:60:8e:85:80:67:9a:d0:bb:cf:
                    ed:02:0c:db:19:16:8d:7d:26:3c:95:0a:b4:64:5b:
                    89:07:d6:83:d5:9c:49:32:fe:13:18:93:d5:74:3b:
                    32:98:e5:40:89:2d:cf:4a:36:69:66:8f:48:d8:4c:
                    dc:36:a6:96:25:2c:5b:e7:16:78:76:af:05:41:0d:
                    3e:eb:ed:52:24:8e:61:40:54:93:b3:be:d7:c7:d9:
                    09:e3:d9:59:06:12:01:8c:a2:19:99:bb:04:38:2b:
                    81:ec:75:fd:dd:92:8a:0c:9c:13:17:06:17:e4:03:
                    71:39:7a:1f:cd:59:48:af:9a:07:9a:09:43:1c:fe:
                    09:b2:99:75:9f:58:05:8f:bc:9c:ff:2d:55:e5:69:
                    df:e8:6a:db:b3:13:55:34:21:64:c7:a6:0f:7f:fc:
                    fa:01:ed:39:fa:6b:c0:8d:5e:d4:a5:6e:b0:b3:37:
                    32:8f
                Exponent: 65537 (0x10001)
        X509v3 extensions:
            X509v3 Basic Constraints: 
                CA:FALSE
            X509v3 Key Usage: critical
                Digital Signature, Key Encipherment
            X509v3 Extended Key Usage: 
                TLS Web Server Authentication, TLS Web Client Authentication
            X509v3 Subject Key Identifier: 
                CE:06:6A:FE:54:79:28:A1:43:7A:9D:79:98:84:91:10:D9:72:AA:9C
            X509v3 Authority Key Identifier: 
                keyid:42:86:4E:F6:30:C6:AA:08:36:CA:63:6E:6C:63:0B:68:83:F5:17:44

    Signature Algorithm: sha256WithRSAEncryption
         4e:f2:34:82:57:c2:fc:a8:af:5e:a2:ee:ab:f1:22:79:39:7a:
         90:20:af:03:01:5e:c2:4b:f1:d2:dc:ae:5d:75:11:e6:da:17:
         88:d8:6a:09:70:d4:12:22:3d:f2:bf:6d:7a:e5:f2:7d:91:1e:
         96:27:cd:87:8c:4d:cb:ad:75:28:41:31:74:65:1b:bd:c6:f3:
         6e:90:22:c4:f0:28:c7:ed:10:2f:36:75:8e:9a:be:6f:eb:44:
         90:ae:c5:10:ba:11:3b:24:37:dd:12:40:dd:df:ff:e3:6b:41:
         96:5f:f9:cd:89:13:b7:e2:23:91:21:11:46:65:3a:bf:bf:86:
         d1:b3:1c:5f:d3:bf:22:4f:d9:a0:15:a1:d2:ce:f3:e2:de:d4:
         46:83:e4:87:c1:a1:3e:d5:5d:60:7a:4a:66:f1:55:19:f7:ae:
         73:d7:bc:74:a8:6b:81:53:b7:ac:f8:0e:f5:74:27:21:3d:49:
         b4:34:b6:e5:88:fe:04:fb:92:01:6a:5f:e2:c6:5e:96:0e:f7:
         c6:dc:12:d6:fc:28:01:0f:68:f3:42:1a:71:4a:ee:36:e5:c1:
         d0:58:bb:a9:2a:06:74:de:2c:9c:60:75:95:84:56:a1:63:4a:
         a9:af:7e:e0:da:25:31:f8:97:c6:9e:96:ce:59:1d:58:47:ab:
         01:d3:fb:ff:8f:7e:77:0d:98:f9:0f:ab:49:aa:5a:0d:7e:78:
         fe:6c:c7:34:c5:14:c3:7b:90:d3:db:11:3c:06:ff:9d:bf:e5:
         19:32:b7:db:83:d9:b2:a7:5c:2d:1d:a1:2b:95:4b:55:92:b4:
         6d:24:ec:2c:64:60:1b:ea:04:cc:63:c1:a6:62:2b:cb:e9:4b:
         c2:dd:50:25:9c:76:c0:51:39:df:c4:f1:2c:a3:3f:1a:b6:f8:
         61:c5:93:be:44:8f:66:ce:08:cf:27:fe:8c:e9:dd:8d:5b:6f:
         89:a5:09:ca:0e:30:bf:fc:fd:56:35:b0:b2:04:1e:6f:bb:49:
         14:d3:9b:31:19:2d:f3:cc:e8:88:89:74:31:c1:36:0a:f3:69:
         9e:74:e9:c8:de:ab:55:d7:4d:9c:d7:16:44:59:5a:66:73:1b:
         3b:77:1b:4d:c9:78:8f:9e:b2:79:bb:57:e3:f7:e0:b5:c8:d7:
         a1:94:cc:ab:d2:94:87:e2:bd:17:98:45:70:be:d9:b6:a2:de:
         de:5d:a3:17:6b:68:ca:28:12:81:36:5b:98:01:a2:0e:10:04:
         3e:2b:53:b5:0c:30:1a:84:b1:4c:52:c1:e5:67:ca:87:98:94:
         77:74:c2:2f:e2:7d:fb:a3:ad:9e:0f:75:29:6d:e9:c4:5a:c5:
         f4:b0:f0:12:81:41:d0:fb
-----BEGIN CERTIFICATE-----
MIIE9zCCAt+gAwIBAgICEAIwDQYJKoZIhvcNAQELBQAwfTELMAkGA1UEBhMCRVUx
CzAJBgNVBAgMAkVVMQswCQYDVQQHDAJFVTERMA8GA1UECgwIT3JiaXQgT1MxGzAZ
BgNVBAsMEkxvY2FsIGdSUEMgbVRMUyBDQTEkMCIGA1UEAwwbT3JiaXQgT1MgTG9j
YWwgZ1JQQyBtVExTIENBMB4XDTIwMDEwMTAwMDAwMFoXDTQ5MTIzMTIzNTk1OVow
gYExCzAJBgNVBAYTAkVVMQswCQYDVQQIDAJFVTELMAkGA1UEBwwCRVUxETAPBgNV
BAoMCE9yYml0IE9TMR0wGwYDVQQLDBRTREsgRGV2ZWxvcG1lbnQgVW5pdDEmMCQG
A1UEAwwdT3JiaXQgT1MgU0RLIERldmVsb3BtZW50IFVuaXQwggEiMA0GCSqGSIb3
DQEBAQUAA4IBDwAwggEKAoIBAQDLhYUOazQy0v64TW8OWqhdgs9IMQOiw17EXG6O
lOJGKSRBthOBIQ1AcVjKlLCRbRadXVnaMk4FhUt409S+DjePzORjpdCn4Unyn2aA
zMXY+GCOhYBnmtC7z+0CDNsZFo19JjyVCrRkW4kH1oPVnEky/hMYk9V0OzKY5UCJ
Lc9KNmlmj0jYTNw2ppYlLFvnFnh2rwVBDT7r7VIkjmFAVJOzvtfH2Qnj2VkGEgGM
ohmZuwQ4K4Hsdf3dkooMnBMXBhfkA3E5eh/NWUivmgeaCUMc/gmymXWfWAWPvJz/
LVXlad/oatuzE1U0IWTHpg9//PoB7Tn6a8CNXtSlbrCzNzKPAgMBAAGjfDB6MAkG
A1UdEwQCMAAwDgYDVR0PAQH/BAQDAgWgMB0GA1UdJQQWMBQGCCsGAQUFBwMBBggr
BgEFBQcDAjAdBgNVHQ4EFgQUzgZq/lR5KKFDep15mISRENlyqpwwHwYDVR0jBBgw
FoAUQoZO9jDGqgg2ymNubGMLaIP1F0QwDQYJKoZIhvcNAQELBQADggIBAE7yNIJX
wvyor16i7qvxInk5epAgrwMBXsJL8dLcrl11EebaF4jYaglw1BIiPfK/bXrl8n2R
HpYnzYeMTcutdShBMXRlG73G826QIsTwKMftEC82dY6avm/rRJCuxRC6ETskN90S
QN3f/+NrQZZf+c2JE7fiI5EhEUZlOr+/htGzHF/TvyJP2aAVodLO8+Le1EaD5IfB
oT7VXWB6SmbxVRn3rnPXvHSoa4FTt6z4DvV0JyE9SbQ0tuWI/gT7kgFqX+LGXpYO
98bcEtb8KAEPaPNCGnFK7jblwdBYu6kqBnTeLJxgdZWEVqFjSqmvfuDaJTH4l8ae
ls5ZHVhHqwHT+/+PfncNmPkPq0mqWg1+eP5sxzTFFMN7kNPbETwG/52/5Rkyt9uD
2bKnXC0doSuVS1WStG0k7CxkYBvqBMxjwaZiK8vpS8LdUCWcdsBROd/E8SyjPxq2
+GHFk75Ej2bOCM8n/ozp3Y1bb4mlCcoOML/8/VY1sLIEHm+7SRTTmzEZLfPM6IiJ
dDHBNgrzaZ506cjeq1XXTZzXFkRZWmZzGzt3G03JeI+esnm7V+P34LXI16GUzKvS
lIfivReYRXC+2bai3t5doxdraMooEoE2W5gBog4QBD4rU7UMMBqEsUxSweVnyoeY
lHd0wi/iffujrZ4PdSlt6cRaxfSw8BKBQdD7
-----END CERTIFICATE-----
